target datalayout = "e-m:e-p270:32:32-p271:32:32-p272:64:64-i64:64-i128:128-f80:128-n8:16:32:64-S128"
target triple = "x86_64-unknown-linux-gnu"

%struct.QemuMutex = type { %union.pthread_mutex_t, i8 }
%union.pthread_mutex_t = type { %struct.__pthread_mutex_s }
%struct.__pthread_mutex_s = type { i32, i32, i32, i32, i32, i16, i16, %struct.__pthread_internal_list }
%struct.__pthread_internal_list = type { ptr, ptr }
%struct.QTailQLink = type { ptr, ptr }
%struct.MirrorBlockJob = type { %struct.BlockJob, ptr, ptr, ptr, ptr, ptr, ptr, ptr, i8, i32, i8, i32, i32, i32, i8, i8, i64, i64, i64, ptr, ptr, ptr, ptr, %struct.anon.14, i32, i64, ptr, i32, i64, %union.anon.15, i32, i8, i32, i32, i8, i32, i64, i8, i8 }
%struct.BlockJob = type { %struct.Job, i32, i64, %struct.RateLimit, ptr, %struct.Notifier, %struct.Notifier, %struct.Notifier, %struct.Notifier, %struct.Notifier, ptr }
%struct.Job = type { ptr, ptr, ptr, i8, i8, ptr, ptr, %struct.ProgressMeter, ptr, i32, i32, %struct.QEMUTimer, i32, i8, i8, i8, i8, i8, i8, i32, ptr, %struct.NotifierList, %struct.NotifierList, %struct.NotifierList, %struct.NotifierList, %struct.NotifierList, %struct.anon.11, ptr, %struct.anon.12 }
%struct.ProgressMeter = type { i64, i64, %struct.QemuMutex }
%struct.QEMUTimer = type { i64, ptr, ptr, ptr, ptr, i32, i32 }
%struct.NotifierList = type { %struct.anon.10 }
%struct.anon.10 = type { ptr }
%struct.anon.11 = type { ptr, ptr }
%struct.anon.12 = type { ptr, ptr }
%struct.RateLimit = type { %struct.QemuMutex, i64, i64, i64, i64, i64 }
%struct.Notifier = type { ptr, %struct.anon.13 }
%struct.anon.13 = type { ptr, ptr }
%struct.anon.14 = type { ptr, ptr }
%union.anon.15 = type { %struct.QTailQLink }

@.str.1 = private unnamed_addr constant [23 x i8] c"../qemu/block/mirror.c\00", align 1
@__func__.mirror_error_action = private unnamed_addr constant [20 x i8] c"mirror_error_action\00", align 1

; Function Attrs: nounwind sspstrong uwtable
define internal i32 @mirror_error_action(ptr noundef %s, i1 noundef zeroext %read, i32 noundef %error) #0 {
entry:
  %retval = alloca i32, align 4
  %s.addr = alloca ptr, align 8
  %read.addr = alloca i8, align 1
  %error.addr = alloca i32, align 4
  %.atomictmp = alloca i8, align 1
  store ptr %s, ptr %s.addr, align 8
  %frombool = zext i1 %read to i8
  store i8 %frombool, ptr %read.addr, align 1
  store i32 %error, ptr %error.addr, align 4
  br label %do.body

do.body:                                          ; preds = %entry
  br label %while.cond

while.cond:                                       ; preds = %do.end, %do.body
  br i1 false, label %while.body, label %while.end

while.body:                                       ; preds = %while.cond
  br label %do.body1

do.body1:                                         ; preds = %while.body
  call void @g_assertion_message_expr(ptr noundef null, ptr noundef @.str.1, i32 noundef 133, ptr noundef @__func__.mirror_error_action, ptr noundef null) #11
  unreachable

do.end:                                           ; No predecessors!
  br label %while.cond

while.end:                                        ; preds = %while.cond
  %0 = load ptr, ptr %s.addr, align 8
  %actively_synced = getelementptr inbounds %struct.MirrorBlockJob, ptr %0, i32 0, i32 14
  store i8 0, ptr %.atomictmp, align 1
  %1 = load i8, ptr %.atomictmp, align 1
  store atomic i8 %1, ptr %actively_synced monotonic, align 8
  br label %do.end2

do.end2:                                          ; preds = %while.end
  %2 = load i8, ptr %read.addr, align 1
  %tobool = trunc i8 %2 to i1
  br i1 %tobool, label %if.then, label %if.else

if.then:                                          ; preds = %do.end2
  %3 = load ptr, ptr %s.addr, align 8
  %common = getelementptr inbounds %struct.MirrorBlockJob, ptr %3, i32 0, i32 0
  %4 = load ptr, ptr %s.addr, align 8
  %on_source_error = getelementptr inbounds %struct.MirrorBlockJob, ptr %4, i32 0, i32 12
  %5 = load i32, ptr %on_source_error, align 8
  %6 = load i32, ptr %error.addr, align 4
  %call = call i32 @block_job_error_action(ptr noundef %common, i32 noundef %5, i32 noundef 1, i32 noundef %6)
  store i32 %call, ptr %retval, align 4
  br label %return

if.else:                                          ; preds = %do.end2
  %7 = load ptr, ptr %s.addr, align 8
  %common3 = getelementptr inbounds %struct.MirrorBlockJob, ptr %7, i32 0, i32 0
  %8 = load ptr, ptr %s.addr, align 8
  %on_target_error = getelementptr inbounds %struct.MirrorBlockJob, ptr %8, i32 0, i32 13
  %9 = load i32, ptr %on_target_error, align 4
  %10 = load i32, ptr %error.addr, align 4
  %call4 = call i32 @block_job_error_action(ptr noundef %common3, i32 noundef %9, i32 noundef 0, i32 noundef %10)
  store i32 %call4, ptr %retval, align 4
  br label %return

return:                                           ; preds = %if.else, %if.then
  %11 = load i32, ptr %retval, align 4
  ret i32 %11
}

; Function Attrs: nounwind sspstrong uwtable
define internal i32 @mirror_flush(ptr noundef %s) #0 {
entry:
  %s.addr = alloca ptr, align 8
  %ret = alloca i32, align 4
  store ptr %s, ptr %s.addr, align 8
  %0 = load ptr, ptr %s.addr, align 8
  %target = getelementptr inbounds %struct.MirrorBlockJob, ptr %0, i32 0, i32 1
  %1 = load ptr, ptr %target, align 8
  %call = call i32 @blk_co_flush(ptr noundef %1)
  store i32 %call, ptr %ret, align 4
  %2 = load i32, ptr %ret, align 4
  %cmp = icmp slt i32 %2, 0
  br i1 %cmp, label %if.then, label %if.end5

if.then:                                          ; preds = %entry
  %3 = load ptr, ptr %s.addr, align 8
  %4 = load i32, ptr %ret, align 4
  %sub = sub i32 0, %4
  %call1 = call i32 @mirror_error_action(ptr noundef %3, i1 noundef zeroext false, i32 noundef %sub)
  %cmp2 = icmp eq i32 %call1, 1
  br i1 %cmp2, label %if.then3, label %if.end

if.then3:                                         ; preds = %if.then
  %5 = load i32, ptr %ret, align 4
  %6 = load ptr, ptr %s.addr, align 8
  %ret4 = getelementptr inbounds %struct.MirrorBlockJob, ptr %6, i32 0, i32 30
  store i32 %5, ptr %ret4, align 8
  br label %if.end

if.end:                                           ; preds = %if.then3, %if.then
  br label %if.end5

if.end5:                                          ; preds = %if.end, %entry
  %7 = load i32, ptr %ret, align 4
  ret i32 %7
}