; Function Attrs: nounwind sspstrong uwtable
define internal i32 @mirror_flush(ptr noundef %s) #0 {
entry:
  %target = getelementptr inbounds nuw i8, ptr %s, i64 520
  %0 = load ptr, ptr %target, align 8
  %call = tail call i32 @blk_co_flush(ptr noundef %0) #12
  %cmp = icmp slt i32 %call, 0
  br i1 %cmp, label %if.then, label %if.end5

if.then:                                          ; preds = %entry
  %sub = sub i32 0, %call
  %actively_synced.i = getelementptr inbounds nuw i8, ptr %s, i64 600
  store atomic i8 0, ptr %actively_synced.i monotonic, align 8
  %on_target_error.i = getelementptr inbounds nuw i8, ptr %s, i64 596
  %1 = load i32, ptr %on_target_error.i, align 4
  %call4.i = tail call i32 @block_job_error_action(ptr noundef nonnull %s, i32 noundef %1, i32 noundef 0, i32 noundef range(i32 1, -2147483647) %sub) #12
  %cmp2 = icmp eq i32 %call4.i, 1
  br i1 %cmp2, label %if.then3, label %if.end5

if.then3:                                         ; preds = %if.then
  %ret4 = getelementptr inbounds nuw i8, ptr %s, i64 736
  store i32 %call, ptr %ret4, align 8
  br label %if.end5

if.end5:                                          ; preds = %if.then, %if.then3, %entry
  ret i32 %call
}